; Function Attrs: nounwind uwtable
define internal i32 @ftp_domore_getsock(ptr noundef %0, ptr noundef %1, ptr noundef %2) #0 {
  %4 = getelementptr inbounds nuw i8, ptr %1, i64 1056
  %.not = icmp eq ptr %0, null
  br i1 %.not, label %30, label %5

5:                                                ; preds = %3
  %6 = getelementptr inbounds nuw i8, ptr %0, i64 2562
  %7 = load i64, ptr %6, align 2
  %8 = and i64 %7, 134217728
  %.not19 = icmp eq i64 %8, 0
  br i1 %.not19, label %30, label %9

9:                                                ; preds = %5
  %10 = getelementptr inbounds nuw i8, ptr %0, i64 4712
  %11 = load ptr, ptr %10, align 8, !tbaa !104
  %.not20 = icmp eq ptr %11, null
  br i1 %.not20, label %18, label %12

12:                                               ; preds = %9
  %13 = getelementptr inbounds nuw i8, ptr %11, i64 8
  %14 = load i32, ptr %13, align 8, !tbaa !105
  %15 = icmp sgt i32 %14, 0
  %16 = load i32, ptr getelementptr inbounds nuw (i8, ptr @Curl_trc_feat_ftp, i64 8), align 8
  %17 = icmp sgt i32 %16, 0
  %or.cond = select i1 %15, i1 %17, i1 false
  br i1 %or.cond, label %19, label %30

18:                                               ; preds = %9
  %.old = load i32, ptr getelementptr inbounds nuw (i8, ptr @Curl_trc_feat_ftp, i64 8), align 8, !tbaa !105
  %.old1 = icmp sgt i32 %.old, 0
  br i1 %.old1, label %19, label %30

19:                                               ; preds = %18, %12
  %20 = getelementptr inbounds nuw i8, ptr %0, i64 24
  %21 = load ptr, ptr %20, align 8, !tbaa !107
  %.not21 = icmp eq ptr %21, null
  br i1 %.not21, label %28, label %22

22:                                               ; preds = %19
  %23 = getelementptr inbounds nuw i8, ptr %21, i64 1326
  %24 = load i8, ptr %23, align 2, !tbaa !21
  %25 = zext i8 %24 to i64
  %26 = getelementptr inbounds nuw [35 x ptr], ptr @ftp_state_names, i64 0, i64 %25
  %27 = load ptr, ptr %26, align 8, !tbaa !8
  br label %28

28:                                               ; preds = %19, %22
  %29 = phi ptr [ %27, %22 ], [ @.str.8, %19 ]
  tail call void (ptr, ptr, ...) @Curl_trc_ftp(ptr noundef nonnull %0, ptr noundef nonnull @.str.44, ptr noundef %29) #10
  br label %30

30:                                               ; preds = %28, %18, %12, %5, %3
  %31 = getelementptr inbounds nuw i8, ptr %1, i64 1326
  %32 = load i8, ptr %31, align 2, !tbaa !138
  %33 = icmp eq i8 %32, 0
  br i1 %33, label %34, label %37

34:                                               ; preds = %30
  %35 = getelementptr inbounds nuw i8, ptr %1, i64 568
  %36 = load i32, ptr %35, align 8, !tbaa !149
  store i32 %36, ptr %2, align 4, !tbaa !149
  br label %39

37:                                               ; preds = %30
  %38 = tail call i32 @Curl_pp_getsock(ptr noundef %0, ptr noundef nonnull %4, ptr noundef %2) #10
  br label %39

39:                                               ; preds = %37, %34
  %.0 = phi i32 [ 1, %34 ], [ %38, %37 ]
  ret i32 %.0
}